target datalayout = "e-m:e-p270:32:32-p271:32:32-p272:64:64-i64:64-i128:128-f80:128-n8:16:32:64-S128"
target triple = "x86_64-pc-linux-gnu"

%struct._zval_struct = type { %union._zend_value, %union.anon, %union.anon.2 }
%union._zend_value = type { i64 }
%union.anon = type { i32 }
%union.anon.2 = type { i32 }
%struct._zend_refcounted_h = type { i32, %union.anon.3 }
%union.anon.3 = type { i32 }
%struct._zend_string = type { %struct._zend_refcounted_h, i64, i64, [1 x i8] }

; Function Attrs: alwaysinline nounwind uwtable
define internal i32 @zend_gc_set_refcount(ptr noundef %0, i32 noundef %1) #2 {
  %3 = alloca ptr, align 8
  %4 = alloca i32, align 4
  store ptr %0, ptr %3, align 8, !tbaa !143
  store i32 %1, ptr %4, align 4, !tbaa !4
  %5 = load i32, ptr %4, align 4, !tbaa !4
  %6 = load ptr, ptr %3, align 8, !tbaa !143
  %7 = getelementptr inbounds nuw %struct._zend_refcounted_h, ptr %6, i32 0, i32 0
  store i32 %5, ptr %7, align 4, !tbaa !145
  %8 = load ptr, ptr %3, align 8, !tbaa !143
  %9 = getelementptr inbounds nuw %struct._zend_refcounted_h, ptr %8, i32 0, i32 0
  %10 = load i32, ptr %9, align 4, !tbaa !145
  ret i32 %10
}

; Function Attrs: alwaysinline nounwind uwtable
define internal ptr @zend_string_alloc(i64 noundef %0, i1 noundef zeroext %1) #2 {
  %3 = alloca i64, align 8
  %4 = alloca i8, align 1
  %5 = alloca ptr, align 8
  store i64 %0, ptr %3, align 8, !tbaa !85
  %6 = zext i1 %1 to i8
  store i8 %6, ptr %4, align 1, !tbaa !72
  call void @llvm.lifetime.start.p0(i64 8, ptr %5) #21
  %7 = load i8, ptr %4, align 1, !tbaa !72, !range !73, !noundef !74
  %8 = trunc i8 %7 to i1
  br i1 %8, label %9, label %17

9:                                                ; preds = %2
  %10 = load i64, ptr %3, align 8, !tbaa !85
  %11 = add i64 24, %10
  %12 = add i64 %11, 1
  %13 = add i64 %12, 8
  %14 = sub i64 %13, 1
  %15 = and i64 %14, -8
  %16 = call noalias ptr @__zend_malloc(i64 noundef %15) #24
  br label %421

17:                                               ; preds = %2
  %18 = load i64, ptr %3, align 8, !tbaa !85
  %19 = add i64 24, %18
  %20 = add i64 %19, 1
  %21 = add i64 %20, 8
  %22 = sub i64 %21, 1
  %23 = and i64 %22, -8
  %24 = call i1 @llvm.is.constant.i64(i64 %23)
  br i1 %24, label %25, label %411

25:                                               ; preds = %17
  %26 = load i64, ptr %3, align 8, !tbaa !85
  %27 = add i64 24, %26
  %28 = add i64 %27, 1
  %29 = add i64 %28, 8
  %30 = sub i64 %29, 1
  %31 = and i64 %30, -8
  %32 = icmp ule i64 %31, 8
  br i1 %32, label %33, label %35

33:                                               ; preds = %25
  %34 = call noalias ptr @_emalloc_8()
  br label %409

35:                                               ; preds = %25
  %36 = load i64, ptr %3, align 8, !tbaa !85
  %37 = add i64 24, %36
  %38 = add i64 %37, 1
  %39 = add i64 %38, 8
  %40 = sub i64 %39, 1
  %41 = and i64 %40, -8
  %42 = icmp ule i64 %41, 16
  br i1 %42, label %43, label %45

43:                                               ; preds = %35
  %44 = call noalias ptr @_emalloc_16()
  br label %407

45:                                               ; preds = %35
  %46 = load i64, ptr %3, align 8, !tbaa !85
  %47 = add i64 24, %46
  %48 = add i64 %47, 1
  %49 = add i64 %48, 8
  %50 = sub i64 %49, 1
  %51 = and i64 %50, -8
  %52 = icmp ule i64 %51, 24
  br i1 %52, label %53, label %55

53:                                               ; preds = %45
  %54 = call noalias ptr @_emalloc_24()
  br label %405

55:                                               ; preds = %45
  %56 = load i64, ptr %3, align 8, !tbaa !85
  %57 = add i64 24, %56
  %58 = add i64 %57, 1
  %59 = add i64 %58, 8
  %60 = sub i64 %59, 1
  %61 = and i64 %60, -8
  %62 = icmp ule i64 %61, 32
  br i1 %62, label %63, label %65

63:                                               ; preds = %55
  %64 = call noalias ptr @_emalloc_32()
  br label %403

65:                                               ; preds = %55
  %66 = load i64, ptr %3, align 8, !tbaa !85
  %67 = add i64 24, %66
  %68 = add i64 %67, 1
  %69 = add i64 %68, 8
  %70 = sub i64 %69, 1
  %71 = and i64 %70, -8
  %72 = icmp ule i64 %71, 40
  br i1 %72, label %73, label %75

73:                                               ; preds = %65
  %74 = call noalias ptr @_emalloc_40()
  br label %401

75:                                               ; preds = %65
  %76 = load i64, ptr %3, align 8, !tbaa !85
  %77 = add i64 24, %76
  %78 = add i64 %77, 1
  %79 = add i64 %78, 8
  %80 = sub i64 %79, 1
  %81 = and i64 %80, -8
  %82 = icmp ule i64 %81, 48
  br i1 %82, label %83, label %85

83:                                               ; preds = %75
  %84 = call noalias ptr @_emalloc_48()
  br label %399

85:                                               ; preds = %75
  %86 = load i64, ptr %3, align 8, !tbaa !85
  %87 = add i64 24, %86
  %88 = add i64 %87, 1
  %89 = add i64 %88, 8
  %90 = sub i64 %89, 1
  %91 = and i64 %90, -8
  %92 = icmp ule i64 %91, 56
  br i1 %92, label %93, label %95

93:                                               ; preds = %85
  %94 = call noalias ptr @_emalloc_56()
  br label %397

95:                                               ; preds = %85
  %96 = load i64, ptr %3, align 8, !tbaa !85
  %97 = add i64 24, %96
  %98 = add i64 %97, 1
  %99 = add i64 %98, 8
  %100 = sub i64 %99, 1
  %101 = and i64 %100, -8
  %102 = icmp ule i64 %101, 64
  br i1 %102, label %103, label %105

103:                                              ; preds = %95
  %104 = call noalias ptr @_emalloc_64()
  br label %395

105:                                              ; preds = %95
  %106 = load i64, ptr %3, align 8, !tbaa !85
  %107 = add i64 24, %106
  %108 = add i64 %107, 1
  %109 = add i64 %108, 8
  %110 = sub i64 %109, 1
  %111 = and i64 %110, -8
  %112 = icmp ule i64 %111, 80
  br i1 %112, label %113, label %115

113:                                              ; preds = %105
  %114 = call noalias ptr @_emalloc_80()
  br label %393

115:                                              ; preds = %105
  %116 = load i64, ptr %3, align 8, !tbaa !85
  %117 = add i64 24, %116
  %118 = add i64 %117, 1
  %119 = add i64 %118, 8
  %120 = sub i64 %119, 1
  %121 = and i64 %120, -8
  %122 = icmp ule i64 %121, 96
  br i1 %122, label %123, label %125

123:                                              ; preds = %115
  %124 = call noalias ptr @_emalloc_96()
  br label %391

125:                                              ; preds = %115
  %126 = load i64, ptr %3, align 8, !tbaa !85
  %127 = add i64 24, %126
  %128 = add i64 %127, 1
  %129 = add i64 %128, 8
  %130 = sub i64 %129, 1
  %131 = and i64 %130, -8
  %132 = icmp ule i64 %131, 112
  br i1 %132, label %133, label %135

133:                                              ; preds = %125
  %134 = call noalias ptr @_emalloc_112()
  br label %389

135:                                              ; preds = %125
  %136 = load i64, ptr %3, align 8, !tbaa !85
  %137 = add i64 24, %136
  %138 = add i64 %137, 1
  %139 = add i64 %138, 8
  %140 = sub i64 %139, 1
  %141 = and i64 %140, -8
  %142 = icmp ule i64 %141, 128
  br i1 %142, label %143, label %145

143:                                              ; preds = %135
  %144 = call noalias ptr @_emalloc_128()
  br label %387

145:                                              ; preds = %135
  %146 = load i64, ptr %3, align 8, !tbaa !85
  %147 = add i64 24, %146
  %148 = add i64 %147, 1
  %149 = add i64 %148, 8
  %150 = sub i64 %149, 1
  %151 = and i64 %150, -8
  %152 = icmp ule i64 %151, 160
  br i1 %152, label %153, label %155

153:                                              ; preds = %145
  %154 = call noalias ptr @_emalloc_160()
  br label %385

155:                                              ; preds = %145
  %156 = load i64, ptr %3, align 8, !tbaa !85
  %157 = add i64 24, %156
  %158 = add i64 %157, 1
  %159 = add i64 %158, 8
  %160 = sub i64 %159, 1
  %161 = and i64 %160, -8
  %162 = icmp ule i64 %161, 192
  br i1 %162, label %163, label %165

163:                                              ; preds = %155
  %164 = call noalias ptr @_emalloc_192()
  br label %383

165:                                              ; preds = %155
  %166 = load i64, ptr %3, align 8, !tbaa !85
  %167 = add i64 24, %166
  %168 = add i64 %167, 1
  %169 = add i64 %168, 8
  %170 = sub i64 %169, 1
  %171 = and i64 %170, -8
  %172 = icmp ule i64 %171, 224
  br i1 %172, label %173, label %175

173:                                              ; preds = %165
  %174 = call noalias ptr @_emalloc_224()
  br label %381

175:                                              ; preds = %165
  %176 = load i64, ptr %3, align 8, !tbaa !85
  %177 = add i64 24, %176
  %178 = add i64 %177, 1
  %179 = add i64 %178, 8
  %180 = sub i64 %179, 1
  %181 = and i64 %180, -8
  %182 = icmp ule i64 %181, 256
  br i1 %182, label %183, label %185

183:                                              ; preds = %175
  %184 = call noalias ptr @_emalloc_256()
  br label %379

185:                                              ; preds = %175
  %186 = load i64, ptr %3, align 8, !tbaa !85
  %187 = add i64 24, %186
  %188 = add i64 %187, 1
  %189 = add i64 %188, 8
  %190 = sub i64 %189, 1
  %191 = and i64 %190, -8
  %192 = icmp ule i64 %191, 320
  br i1 %192, label %193, label %195

193:                                              ; preds = %185
  %194 = call noalias ptr @_emalloc_320()
  br label %377

195:                                              ; preds = %185
  %196 = load i64, ptr %3, align 8, !tbaa !85
  %197 = add i64 24, %196
  %198 = add i64 %197, 1
  %199 = add i64 %198, 8
  %200 = sub i64 %199, 1
  %201 = and i64 %200, -8
  %202 = icmp ule i64 %201, 384
  br i1 %202, label %203, label %205

203:                                              ; preds = %195
  %204 = call noalias ptr @_emalloc_384()
  br label %375

205:                                              ; preds = %195
  %206 = load i64, ptr %3, align 8, !tbaa !85
  %207 = add i64 24, %206
  %208 = add i64 %207, 1
  %209 = add i64 %208, 8
  %210 = sub i64 %209, 1
  %211 = and i64 %210, -8
  %212 = icmp ule i64 %211, 448
  br i1 %212, label %213, label %215

213:                                              ; preds = %205
  %214 = call noalias ptr @_emalloc_448()
  br label %373

215:                                              ; preds = %205
  %216 = load i64, ptr %3, align 8, !tbaa !85
  %217 = add i64 24, %216
  %218 = add i64 %217, 1
  %219 = add i64 %218, 8
  %220 = sub i64 %219, 1
  %221 = and i64 %220, -8
  %222 = icmp ule i64 %221, 512
  br i1 %222, label %223, label %225

223:                                              ; preds = %215
  %224 = call noalias ptr @_emalloc_512()
  br label %371

225:                                              ; preds = %215
  %226 = load i64, ptr %3, align 8, !tbaa !85
  %227 = add i64 24, %226
  %228 = add i64 %227, 1
  %229 = add i64 %228, 8
  %230 = sub i64 %229, 1
  %231 = and i64 %230, -8
  %232 = icmp ule i64 %231, 640
  br i1 %232, label %233, label %235

233:                                              ; preds = %225
  %234 = call noalias ptr @_emalloc_640()
  br label %369

235:                                              ; preds = %225
  %236 = load i64, ptr %3, align 8, !tbaa !85
  %237 = add i64 24, %236
  %238 = add i64 %237, 1
  %239 = add i64 %238, 8
  %240 = sub i64 %239, 1
  %241 = and i64 %240, -8
  %242 = icmp ule i64 %241, 768
  br i1 %242, label %243, label %245

243:                                              ; preds = %235
  %244 = call noalias ptr @_emalloc_768()
  br label %367

245:                                              ; preds = %235
  %246 = load i64, ptr %3, align 8, !tbaa !85
  %247 = add i64 24, %246
  %248 = add i64 %247, 1
  %249 = add i64 %248, 8
  %250 = sub i64 %249, 1
  %251 = and i64 %250, -8
  %252 = icmp ule i64 %251, 896
  br i1 %252, label %253, label %255

253:                                              ; preds = %245
  %254 = call noalias ptr @_emalloc_896()
  br label %365

255:                                              ; preds = %245
  %256 = load i64, ptr %3, align 8, !tbaa !85
  %257 = add i64 24, %256
  %258 = add i64 %257, 1
  %259 = add i64 %258, 8
  %260 = sub i64 %259, 1
  %261 = and i64 %260, -8
  %262 = icmp ule i64 %261, 1024
  br i1 %262, label %263, label %265

263:                                              ; preds = %255
  %264 = call noalias ptr @_emalloc_1024()
  br label %363

265:                                              ; preds = %255
  %266 = load i64, ptr %3, align 8, !tbaa !85
  %267 = add i64 24, %266
  %268 = add i64 %267, 1
  %269 = add i64 %268, 8
  %270 = sub i64 %269, 1
  %271 = and i64 %270, -8
  %272 = icmp ule i64 %271, 1280
  br i1 %272, label %273, label %275

273:                                              ; preds = %265
  %274 = call noalias ptr @_emalloc_1280()
  br label %361

275:                                              ; preds = %265
  %276 = load i64, ptr %3, align 8, !tbaa !85
  %277 = add i64 24, %276
  %278 = add i64 %277, 1
  %279 = add i64 %278, 8
  %280 = sub i64 %279, 1
  %281 = and i64 %280, -8
  %282 = icmp ule i64 %281, 1536
  br i1 %282, label %283, label %285

283:                                              ; preds = %275
  %284 = call noalias ptr @_emalloc_1536()
  br label %359

285:                                              ; preds = %275
  %286 = load i64, ptr %3, align 8, !tbaa !85
  %287 = add i64 24, %286
  %288 = add i64 %287, 1
  %289 = add i64 %288, 8
  %290 = sub i64 %289, 1
  %291 = and i64 %290, -8
  %292 = icmp ule i64 %291, 1792
  br i1 %292, label %293, label %295

293:                                              ; preds = %285
  %294 = call noalias ptr @_emalloc_1792()
  br label %357

295:                                              ; preds = %285
  %296 = load i64, ptr %3, align 8, !tbaa !85
  %297 = add i64 24, %296
  %298 = add i64 %297, 1
  %299 = add i64 %298, 8
  %300 = sub i64 %299, 1
  %301 = and i64 %300, -8
  %302 = icmp ule i64 %301, 2048
  br i1 %302, label %303, label %305

303:                                              ; preds = %295
  %304 = call noalias ptr @_emalloc_2048()
  br label %355

305:                                              ; preds = %295
  %306 = load i64, ptr %3, align 8, !tbaa !85
  %307 = add i64 24, %306
  %308 = add i64 %307, 1
  %309 = add i64 %308, 8
  %310 = sub i64 %309, 1
  %311 = and i64 %310, -8
  %312 = icmp ule i64 %311, 2560
  br i1 %312, label %313, label %315

313:                                              ; preds = %305
  %314 = call noalias ptr @_emalloc_2560()
  br label %353

315:                                              ; preds = %305
  %316 = load i64, ptr %3, align 8, !tbaa !85
  %317 = add i64 24, %316
  %318 = add i64 %317, 1
  %319 = add i64 %318, 8
  %320 = sub i64 %319, 1
  %321 = and i64 %320, -8
  %322 = icmp ule i64 %321, 3072
  br i1 %322, label %323, label %325

323:                                              ; preds = %315
  %324 = call noalias ptr @_emalloc_3072()
  br label %351

325:                                              ; preds = %315
  %326 = load i64, ptr %3, align 8, !tbaa !85
  %327 = add i64 24, %326
  %328 = add i64 %327, 1
  %329 = add i64 %328, 8
  %330 = sub i64 %329, 1
  %331 = and i64 %330, -8
  %332 = icmp ule i64 %331, 2093056
  br i1 %332, label %333, label %341

333:                                              ; preds = %325
  %334 = load i64, ptr %3, align 8, !tbaa !85
  %335 = add i64 24, %334
  %336 = add i64 %335, 1
  %337 = add i64 %336, 8
  %338 = sub i64 %337, 1
  %339 = and i64 %338, -8
  %340 = call noalias ptr @_emalloc_large(i64 noundef %339) #24
  br label %349

341:                                              ; preds = %325
  %342 = load i64, ptr %3, align 8, !tbaa !85
  %343 = add i64 24, %342
  %344 = add i64 %343, 1
  %345 = add i64 %344, 8
  %346 = sub i64 %345, 1
  %347 = and i64 %346, -8
  %348 = call noalias ptr @_emalloc_huge(i64 noundef %347) #24
  br label %349

349:                                              ; preds = %341, %333
  %350 = phi ptr [ %340, %333 ], [ %348, %341 ]
  br label %351

351:                                              ; preds = %349, %323
  %352 = phi ptr [ %324, %323 ], [ %350, %349 ]
  br label %353

353:                                              ; preds = %351, %313
  %354 = phi ptr [ %314, %313 ], [ %352, %351 ]
  br label %355

355:                                              ; preds = %353, %303
  %356 = phi ptr [ %304, %303 ], [ %354, %353 ]
  br label %357

357:                                              ; preds = %355, %293
  %358 = phi ptr [ %294, %293 ], [ %356, %355 ]
  br label %359

359:                                              ; preds = %357, %283
  %360 = phi ptr [ %284, %283 ], [ %358, %357 ]
  br label %361

361:                                              ; preds = %359, %273
  %362 = phi ptr [ %274, %273 ], [ %360, %359 ]
  br label %363

363:                                              ; preds = %361, %263
  %364 = phi ptr [ %264, %263 ], [ %362, %361 ]
  br label %365

365:                                              ; preds = %363, %253
  %366 = phi ptr [ %254, %253 ], [ %364, %363 ]
  br label %367

367:                                              ; preds = %365, %243
  %368 = phi ptr [ %244, %243 ], [ %366, %365 ]
  br label %369

369:                                              ; preds = %367, %233
  %370 = phi ptr [ %234, %233 ], [ %368, %367 ]
  br label %371

371:                                              ; preds = %369, %223
  %372 = phi ptr [ %224, %223 ], [ %370, %369 ]
  br label %373

373:                                              ; preds = %371, %213
  %374 = phi ptr [ %214, %213 ], [ %372, %371 ]
  br label %375

375:                                              ; preds = %373, %203
  %376 = phi ptr [ %204, %203 ], [ %374, %373 ]
  br label %377

377:                                              ; preds = %375, %193
  %378 = phi ptr [ %194, %193 ], [ %376, %375 ]
  br label %379

379:                                              ; preds = %377, %183
  %380 = phi ptr [ %184, %183 ], [ %378, %377 ]
  br label %381

381:                                              ; preds = %379, %173
  %382 = phi ptr [ %174, %173 ], [ %380, %379 ]
  br label %383

383:                                              ; preds = %381, %163
  %384 = phi ptr [ %164, %163 ], [ %382, %381 ]
  br label %385

385:                                              ; preds = %383, %153
  %386 = phi ptr [ %154, %153 ], [ %384, %383 ]
  br label %387

387:                                              ; preds = %385, %143
  %388 = phi ptr [ %144, %143 ], [ %386, %385 ]
  br label %389

389:                                              ; preds = %387, %133
  %390 = phi ptr [ %134, %133 ], [ %388, %387 ]
  br label %391

391:                                              ; preds = %389, %123
  %392 = phi ptr [ %124, %123 ], [ %390, %389 ]
  br label %393

393:                                              ; preds = %391, %113
  %394 = phi ptr [ %114, %113 ], [ %392, %391 ]
  br label %395

395:                                              ; preds = %393, %103
  %396 = phi ptr [ %104, %103 ], [ %394, %393 ]
  br label %397

397:                                              ; preds = %395, %93
  %398 = phi ptr [ %94, %93 ], [ %396, %395 ]
  br label %399

399:                                              ; preds = %397, %83
  %400 = phi ptr [ %84, %83 ], [ %398, %397 ]
  br label %401

401:                                              ; preds = %399, %73
  %402 = phi ptr [ %74, %73 ], [ %400, %399 ]
  br label %403

403:                                              ; preds = %401, %63
  %404 = phi ptr [ %64, %63 ], [ %402, %401 ]
  br label %405

405:                                              ; preds = %403, %53
  %406 = phi ptr [ %54, %53 ], [ %404, %403 ]
  br label %407

407:                                              ; preds = %405, %43
  %408 = phi ptr [ %44, %43 ], [ %406, %405 ]
  br label %409

409:                                              ; preds = %407, %33
  %410 = phi ptr [ %34, %33 ], [ %408, %407 ]
  br label %419

411:                                              ; preds = %17
  %412 = load i64, ptr %3, align 8, !tbaa !85
  %413 = add i64 24, %412
  %414 = add i64 %413, 1
  %415 = add i64 %414, 8
  %416 = sub i64 %415, 1
  %417 = and i64 %416, -8
  %418 = call noalias ptr @_emalloc(i64 noundef %417) #24
  br label %419

419:                                              ; preds = %411, %409
  %420 = phi ptr [ %410, %409 ], [ %418, %411 ]
  br label %421

421:                                              ; preds = %419, %9
  %422 = phi ptr [ %16, %9 ], [ %420, %419 ]
  store ptr %422, ptr %5, align 8, !tbaa !48
  %423 = load ptr, ptr %5, align 8, !tbaa !48
  %424 = getelementptr inbounds nuw %struct._zend_string, ptr %423, i32 0, i32 0
  %425 = call i32 @zend_gc_set_refcount(ptr noundef %424, i32 noundef 1)
  %426 = load i8, ptr %4, align 1, !tbaa !72, !range !73, !noundef !74
  %427 = trunc i8 %426 to i1
  %428 = select i1 %427, i32 128, i32 0
  %429 = shl i32 %428, 0
  %430 = or i32 22, %429
  %431 = load ptr, ptr %5, align 8, !tbaa !48
  %432 = getelementptr inbounds nuw %struct._zend_string, ptr %431, i32 0, i32 0
  %433 = getelementptr inbounds nuw %struct._zend_refcounted_h, ptr %432, i32 0, i32 1
  store i32 %430, ptr %433, align 4, !tbaa !44
  %434 = load ptr, ptr %5, align 8, !tbaa !48
  %435 = getelementptr inbounds nuw %struct._zend_string, ptr %434, i32 0, i32 1
  store i64 0, ptr %435, align 8, !tbaa !192
  %436 = load i64, ptr %3, align 8, !tbaa !85
  %437 = load ptr, ptr %5, align 8, !tbaa !48
  %438 = getelementptr inbounds nuw %struct._zend_string, ptr %437, i32 0, i32 2
  store i64 %436, ptr %438, align 8, !tbaa !171
  %439 = load ptr, ptr %5, align 8, !tbaa !48
  call void @llvm.lifetime.end.p0(i64 8, ptr %5) #21
  ret ptr %439
}

; Function Attrs: alwaysinline nounwind uwtable
define internal ptr @zend_string_init(ptr noundef %0, i64 noundef %1, i1 noundef zeroext %2) #2 {
  %4 = alloca ptr, align 8
  %5 = alloca i64, align 8
  %6 = alloca i8, align 1
  %7 = alloca ptr, align 8
  store ptr %0, ptr %4, align 8, !tbaa !47
  store i64 %1, ptr %5, align 8, !tbaa !85
  %8 = zext i1 %2 to i8
  store i8 %8, ptr %6, align 1, !tbaa !72
  call void @llvm.lifetime.start.p0(i64 8, ptr %7) #21
  %9 = load i64, ptr %5, align 8, !tbaa !85
  %10 = load i8, ptr %6, align 1, !tbaa !72, !range !73, !noundef !74
  %11 = trunc i8 %10 to i1
  %12 = call ptr @zend_string_alloc(i64 noundef %9, i1 noundef zeroext %11)
  store ptr %12, ptr %7, align 8, !tbaa !48
  %13 = load ptr, ptr %7, align 8, !tbaa !48
  %14 = getelementptr inbounds nuw %struct._zend_string, ptr %13, i32 0, i32 3
  %15 = getelementptr inbounds [1 x i8], ptr %14, i64 0, i64 0
  %16 = load ptr, ptr %4, align 8, !tbaa !47
  %17 = load i64, ptr %5, align 8, !tbaa !85
  call void @llvm.memcpy.p0.p0.i64(ptr align 8 %15, ptr align 1 %16, i64 %17, i1 false)
  %18 = load ptr, ptr %7, align 8, !tbaa !48
  %19 = getelementptr inbounds nuw %struct._zend_string, ptr %18, i32 0, i32 3
  %20 = load i64, ptr %5, align 8, !tbaa !85
  %21 = getelementptr inbounds nuw [1 x i8], ptr %19, i64 0, i64 %20
  store i8 0, ptr %21, align 1, !tbaa !44
  %22 = load ptr, ptr %7, align 8, !tbaa !48
  call void @llvm.lifetime.end.p0(i64 8, ptr %7) #21
  ret ptr %22
}

; Function Attrs: nounwind uwtable
define dso_local void @add_index_string(ptr noundef %0, i64 noundef %1, ptr noundef %2) #0 {
  %4 = alloca ptr, align 8
  %5 = alloca i64, align 8
  %6 = alloca ptr, align 8
  %7 = alloca %struct._zval_struct, align 8
  %8 = alloca ptr, align 8
  %9 = alloca ptr, align 8
  %10 = alloca ptr, align 8
  store ptr %0, ptr %4, align 8, !tbaa !8
  store i64 %1, ptr %5, align 8, !tbaa !85
  store ptr %2, ptr %6, align 8, !tbaa !47
  call void @llvm.lifetime.start.p0(i64 16, ptr %7) #21
  br label %11

11:                                               ; preds = %3
  call void @llvm.lifetime.start.p0(i64 8, ptr %8) #21
  %12 = load ptr, ptr %6, align 8, !tbaa !47
  store ptr %12, ptr %8, align 8, !tbaa !47
  br label %13

13:                                               ; preds = %11
  br label %14

14:                                               ; preds = %13
  call void @llvm.lifetime.start.p0(i64 8, ptr %9) #21
  store ptr %7, ptr %9, align 8, !tbaa !8
  call void @llvm.lifetime.start.p0(i64 8, ptr %10) #21
  %15 = load ptr, ptr %8, align 8, !tbaa !47
  %16 = load ptr, ptr %8, align 8, !tbaa !47
  %17 = call i64 @strlen(ptr noundef %16) #22
  %18 = call ptr @zend_string_init(ptr noundef %15, i64 noundef %17, i1 noundef zeroext false)
  store ptr %18, ptr %10, align 8, !tbaa !48
  %19 = load ptr, ptr %10, align 8, !tbaa !48
  %20 = load ptr, ptr %9, align 8, !tbaa !8
  %21 = getelementptr inbounds nuw %struct._zval_struct, ptr %20, i32 0, i32 0
  store ptr %19, ptr %21, align 8, !tbaa !44
  %22 = load ptr, ptr %9, align 8, !tbaa !8
  %23 = getelementptr inbounds nuw %struct._zval_struct, ptr %22, i32 0, i32 1
  store i32 262, ptr %23, align 8, !tbaa !44
  call void @llvm.lifetime.end.p0(i64 8, ptr %10) #21
  call void @llvm.lifetime.end.p0(i64 8, ptr %9) #21
  br label %24

24:                                               ; preds = %14
  br label %25

25:                                               ; preds = %24
  br label %26

26:                                               ; preds = %25
  br label %27

27:                                               ; preds = %26
  call void @llvm.lifetime.end.p0(i64 8, ptr %8) #21
  br label %28

28:                                               ; preds = %27
  br label %29

29:                                               ; preds = %28
  %30 = load ptr, ptr %4, align 8, !tbaa !8
  %31 = getelementptr inbounds nuw %struct._zval_struct, ptr %30, i32 0, i32 0
  %32 = load ptr, ptr %31, align 8, !tbaa !44
  %33 = load i64, ptr %5, align 8, !tbaa !85
  %34 = call ptr @zend_hash_index_update(ptr noundef %32, i64 noundef %33, ptr noundef %7)
  call void @llvm.lifetime.end.p0(i64 16, ptr %7) #21
  ret void
}